; Function Attrs: mustprogress uwtable
define internal fastcc void @_ZN3smtL32check_no_uninterpreted_functionsERK15static_featuresPKc(i32 %st.508.val) unnamed_addr #4 personality ptr @__gxx_personality_v0 {
entry:
  %ref.tmp = alloca %"class.std::__cxx11::basic_string", align 8
  %ref.tmp1 = alloca %"class.std::allocator.310", align 1
  %cmp.not = icmp eq i32 %st.508.val, 0
  br i1 %cmp.not, label %if.end, label %if.then

if.then:                                          ; preds = %entry
  %exception = tail call ptr @__cxa_allocate_exception(i64 40) #15
  call void @_ZNSaIcEC1Ev(ptr noundef nonnull align 1 dereferenceable(1) %ref.tmp1) #15
  invoke void @_ZNSt7__cxx1112basic_stringIcSt11char_traitsIcESaIcEEC2IS3_EEPKcRKS3_(ptr noundef nonnull align 8 dereferenceable(32) %ref.tmp, ptr noundef nonnull @.str.63, ptr noundef nonnull align 1 dereferenceable(1) %ref.tmp1)
          to label %invoke.cont unwind label %cleanup.action

invoke.cont:                                      ; preds = %if.then
  store ptr getelementptr inbounds ({ [6 x ptr] }, ptr @_ZTV17default_exception, i64 0, i32 0, i64 2), ptr %exception, align 8
  %m_msg.i = getelementptr inbounds i8, ptr %exception, i64 8
  call void @_ZNSt7__cxx1112basic_stringIcSt11char_traitsIcESaIcEEC1EOS4_(ptr noundef nonnull align 8 dereferenceable(32) %m_msg.i, ptr noundef nonnull align 8 dereferenceable(32) %ref.tmp) #15
  invoke void @__cxa_throw(ptr nonnull %exception, ptr nonnull @_ZTI17default_exception, ptr nonnull @_ZN17default_exceptionD2Ev) #17
          to label %unreachable unwind label %ehcleanup

ehcleanup:                                        ; preds = %invoke.cont
  %0 = landingpad { ptr, i32 }
          cleanup
  call void @_ZNSt7__cxx1112basic_stringIcSt11char_traitsIcESaIcEED1Ev(ptr noundef nonnull align 8 dereferenceable(32) %ref.tmp) #15
  call void @_ZNSaIcED1Ev(ptr noundef nonnull align 1 dereferenceable(1) %ref.tmp1) #15
  br label %eh.resume

cleanup.action:                                   ; preds = %if.then
  %1 = landingpad { ptr, i32 }
          cleanup
  call void @_ZNSaIcED1Ev(ptr noundef nonnull align 1 dereferenceable(1) %ref.tmp1) #15
  call void @__cxa_free_exception(ptr %exception) #15
  br label %eh.resume

if.end:                                           ; preds = %entry
  ret void

eh.resume:                                        ; preds = %ehcleanup, %cleanup.action
  %.pn3 = phi { ptr, i32 } [ %0, %ehcleanup ], [ %1, %cleanup.action ]
  resume { ptr, i32 } %.pn3

unreachable:                                      ; preds = %invoke.cont
  unreachable
}